; Function Attrs: nounwind uwtable
define internal void @array_subscript_fetch(ptr readnone captures(none) %0, ptr noundef readonly captures(none) %1, ptr readnone captures(none) %2) #1 {
  %4 = getelementptr inbounds nuw i8, ptr %1, i64 32
  %5 = load ptr, ptr %4, align 8
  %6 = getelementptr inbounds nuw i8, ptr %5, i64 8
  %7 = load ptr, ptr %6, align 8
  %8 = getelementptr inbounds nuw i8, ptr %1, i64 8
  %9 = load ptr, ptr %8, align 8
  %10 = load i64, ptr %9, align 8
  %11 = getelementptr inbounds nuw i8, ptr %5, i64 16
  %12 = load i32, ptr %11, align 8
  %13 = getelementptr inbounds nuw i8, ptr %7, i64 12
  %14 = getelementptr inbounds nuw i8, ptr %7, i64 4
  %15 = load i16, ptr %14, align 4
  %16 = sext i16 %15 to i32
  %17 = getelementptr inbounds nuw i8, ptr %7, i64 6
  %18 = load i16, ptr %17, align 2
  %19 = sext i16 %18 to i32
  %20 = getelementptr inbounds nuw i8, ptr %7, i64 8
  %21 = load i8, ptr %20, align 4, !range !4, !noundef !5
  %22 = trunc nuw i8 %21 to i1
  %23 = getelementptr inbounds nuw i8, ptr %7, i64 9
  %24 = load i8, ptr %23, align 1
  %25 = getelementptr inbounds nuw i8, ptr %1, i64 16
  %26 = load ptr, ptr %25, align 8
  %27 = tail call i64 @array_get_element(i64 noundef %10, i32 noundef %12, ptr noundef nonnull %13, i32 noundef %16, i32 noundef %19, i1 noundef zeroext %22, i8 noundef signext %24, ptr noundef %26) #7
  %28 = load ptr, ptr %8, align 8
  store i64 %27, ptr %28, align 8
  ret void
}